target datalayout = "e-m:e-p270:32:32-p271:32:32-p272:64:64-i64:64-i128:128-f80:128-n8:16:32:64-S128"
target triple = "x86_64-unknown-linux-gnu"

%"class.boost::detail::shared_count" = type { ptr }
%"class.QuantLib::BSMRNDCalculator" = type { %"class.QuantLib::RiskNeutralDensityCalculator", %"class.boost::shared_ptr.14" }
%"class.QuantLib::RiskNeutralDensityCalculator" = type { ptr }
%"class.boost::shared_ptr.14" = type { ptr, %"class.boost::detail::shared_count" }
%"struct.std::pair" = type { double, double }
%"class.boost::shared_ptr.24" = type { ptr, %"class.boost::detail::shared_count" }
%"class.boost::shared_ptr.25" = type { ptr, %"class.boost::detail::shared_count" }

@.str.8 = private unnamed_addr constant [8 x i8] c"px != 0\00", align 1
@.str.9 = private unnamed_addr constant [102 x i8] c"generated/home/dtcxzyw/WorkSpace/SDK/vcpkg/installed/x64-linux/include/boost/smart_ptr/shared_ptr.hpp\00", align 1
@__PRETTY_FUNCTION__._ZNK5boost10shared_ptrIN8QuantLib21BlackVolTermStructureEEptEv = private unnamed_addr constant [159 x i8] c"typename boost::detail::sp_member_access<T>::type boost::shared_ptr<QuantLib::BlackVolTermStructure>::operator->() const [T = QuantLib::BlackVolTermStructure]\00", align 1
@__PRETTY_FUNCTION__._ZNK5boost10shared_ptrIN8QuantLib18YieldTermStructureEEptEv = private unnamed_addr constant [153 x i8] c"typename boost::detail::sp_member_access<T>::type boost::shared_ptr<QuantLib::YieldTermStructure>::operator->() const [T = QuantLib::YieldTermStructure]\00", align 1

; Function Attrs: mustprogress nounwind uwtable
define linkonce_odr void @_ZNSt4pairIddEC2IddTnNSt9enable_ifIXaaclsr5_PCCPE18_ConstructiblePairIT_T0_EEclsr5_PCCPE26_ImplicitlyConvertiblePairIS3_S4_EEEbE4typeELb1EEERKdS8_(ptr noundef nonnull align 8 dereferenceable(16) %this, ptr noundef nonnull align 8 dereferenceable(8) %__a, ptr noundef nonnull align 8 dereferenceable(8) %__b) unnamed_addr #4 comdat align 2 {
entry:
  %this.addr = alloca ptr, align 8
  %__a.addr = alloca ptr, align 8
  %__b.addr = alloca ptr, align 8
  store ptr %this, ptr %this.addr, align 8, !tbaa !3
  store ptr %__a, ptr %__a.addr, align 8, !tbaa !3
  store ptr %__b, ptr %__b.addr, align 8, !tbaa !3
  %this1 = load ptr, ptr %this.addr, align 8
  %first = getelementptr inbounds nuw %"struct.std::pair", ptr %this1, i32 0, i32 0
  %0 = load ptr, ptr %__a.addr, align 8, !tbaa !3
  %1 = load double, ptr %0, align 8, !tbaa !12
  store double %1, ptr %first, align 8, !tbaa !24
  %second = getelementptr inbounds nuw %"struct.std::pair", ptr %this1, i32 0, i32 1
  %2 = load ptr, ptr %__b.addr, align 8, !tbaa !3
  %3 = load double, ptr %2, align 8, !tbaa !12
  store double %3, ptr %second, align 8, !tbaa !26
  ret void
}

; Function Attrs: mustprogress uwtable
define linkonce_odr { double, double } @_ZSt9make_pairIRKdS1_ESt4pairINSt25__strip_reference_wrapperINSt5decayIT_E4typeEE6__typeENS3_INS4_IT0_E4typeEE6__typeEEOS5_OSA_(ptr noundef nonnull align 8 dereferenceable(8) %__x, ptr noundef nonnull align 8 dereferenceable(8) %__y) #5 comdat {
entry:
  %retval = alloca %"struct.std::pair", align 8
  %__x.addr = alloca ptr, align 8
  %__y.addr = alloca ptr, align 8
  store ptr %__x, ptr %__x.addr, align 8, !tbaa !3
  store ptr %__y, ptr %__y.addr, align 8, !tbaa !3
  %0 = load ptr, ptr %__x.addr, align 8, !tbaa !3
  %1 = load ptr, ptr %__y.addr, align 8, !tbaa !3
  call void @_ZNSt4pairIddEC2IddTnNSt9enable_ifIXaaclsr5_PCCPE18_ConstructiblePairIT_T0_EEclsr5_PCCPE26_ImplicitlyConvertiblePairIS3_S4_EEEbE4typeELb1EEERKdS8_(ptr noundef nonnull align 8 dereferenceable(16) %retval, ptr noundef nonnull align 8 dereferenceable(8) %0, ptr noundef nonnull align 8 dereferenceable(8) %1)
  %2 = load { double, double }, ptr %retval, align 8
  ret { double, double } %2
}

; Function Attrs: mustprogress uwtable
define linkonce_odr noundef ptr @_ZNK5boost10shared_ptrIN8QuantLib18YieldTermStructureEEptEv(ptr noundef nonnull align 8 dereferenceable(16) %this) #5 comdat align 2 {
entry:
  %this.addr = alloca ptr, align 8
  store ptr %this, ptr %this.addr, align 8, !tbaa !3
  %this1 = load ptr, ptr %this.addr, align 8
  %px = getelementptr inbounds nuw %"class.boost::shared_ptr.25", ptr %this1, i32 0, i32 0
  %0 = load ptr, ptr %px, align 8, !tbaa !22
  %cmp = icmp ne ptr %0, null
  %lnot = xor i1 %cmp, true
  %lnot2 = xor i1 %lnot, true
  %conv = zext i1 %lnot2 to i64
  %expval = call i64 @llvm.expect.i64(i64 %conv, i64 1)
  %tobool = icmp ne i64 %expval, 0
  br i1 %tobool, label %cond.true, label %cond.false

cond.true:                                        ; preds = %entry
  br label %cond.end

cond.false:                                       ; preds = %entry
  call void @_ZN5boost16assertion_failedEPKcS1_S1_l(ptr noundef @.str.8, ptr noundef @__PRETTY_FUNCTION__._ZNK5boost10shared_ptrIN8QuantLib18YieldTermStructureEEptEv, ptr noundef @.str.9, i64 noundef 784)
  br label %cond.end

cond.end:                                         ; preds = %cond.false, %cond.true
  %px3 = getelementptr inbounds nuw %"class.boost::shared_ptr.25", ptr %this1, i32 0, i32 0
  %1 = load ptr, ptr %px3, align 8, !tbaa !22
  ret ptr %1
}

; Function Attrs: inlinehint mustprogress uwtable
define linkonce_odr noundef double @_ZNK8QuantLib21BlackVolTermStructure8blackVolEddb(ptr noundef nonnull align 8 dereferenceable(68) %this, double noundef %t, double noundef %strike, i1 noundef zeroext %extrapolate) #6 comdat align 2 {
entry:
  %this.addr = alloca ptr, align 8
  %t.addr = alloca double, align 8
  %strike.addr = alloca double, align 8
  %extrapolate.addr = alloca i8, align 1
  store ptr %this, ptr %this.addr, align 8, !tbaa !3
  store double %t, ptr %t.addr, align 8, !tbaa !12
  store double %strike, ptr %strike.addr, align 8, !tbaa !12
  %storedv = zext i1 %extrapolate to i8
  store i8 %storedv, ptr %extrapolate.addr, align 1, !tbaa !18
  %this1 = load ptr, ptr %this.addr, align 8
  %0 = load double, ptr %t.addr, align 8, !tbaa !12
  %1 = load i8, ptr %extrapolate.addr, align 1, !tbaa !18, !range !20, !noundef !21
  %loadedv = trunc i8 %1 to i1
  call void @_ZNK8QuantLib13TermStructure10checkRangeEdb(ptr noundef nonnull align 8 dereferenceable(64) %this1, double noundef %0, i1 noundef zeroext %loadedv)
  %2 = load double, ptr %strike.addr, align 8, !tbaa !12
  %3 = load i8, ptr %extrapolate.addr, align 1, !tbaa !18, !range !20, !noundef !21
  %loadedv2 = trunc i8 %3 to i1
  call void @_ZNK8QuantLib23VolatilityTermStructure11checkStrikeEdb(ptr noundef nonnull align 8 dereferenceable(68) %this1, double noundef %2, i1 noundef zeroext %loadedv2)
  %4 = load double, ptr %t.addr, align 8, !tbaa !12
  %5 = load double, ptr %strike.addr, align 8, !tbaa !12
  %vtable = load ptr, ptr %this1, align 8, !tbaa !7
  %vfn = getelementptr inbounds ptr, ptr %vtable, i64 14
  %6 = load ptr, ptr %vfn, align 8
  %call = call noundef double %6(ptr noundef nonnull align 8 dereferenceable(68) %this1, double noundef %4, double noundef %5)
  ret double %call
}

; Function Attrs: mustprogress uwtable
define linkonce_odr noundef ptr @_ZNK5boost10shared_ptrIN8QuantLib21BlackVolTermStructureEEptEv(ptr noundef nonnull align 8 dereferenceable(16) %this) #5 comdat align 2 {
entry:
  %this.addr = alloca ptr, align 8
  store ptr %this, ptr %this.addr, align 8, !tbaa !3
  %this1 = load ptr, ptr %this.addr, align 8
  %px = getelementptr inbounds nuw %"class.boost::shared_ptr.24", ptr %this1, i32 0, i32 0
  %0 = load ptr, ptr %px, align 8, !tbaa !16
  %cmp = icmp ne ptr %0, null
  %lnot = xor i1 %cmp, true
  %lnot2 = xor i1 %lnot, true
  %conv = zext i1 %lnot2 to i64
  %expval = call i64 @llvm.expect.i64(i64 %conv, i64 1)
  %tobool = icmp ne i64 %expval, 0
  br i1 %tobool, label %cond.true, label %cond.false

cond.true:                                        ; preds = %entry
  br label %cond.end

cond.false:                                       ; preds = %entry
  call void @_ZN5boost16assertion_failedEPKcS1_S1_l(ptr noundef @.str.8, ptr noundef @__PRETTY_FUNCTION__._ZNK5boost10shared_ptrIN8QuantLib21BlackVolTermStructureEEptEv, ptr noundef @.str.9, i64 noundef 784)
  br label %cond.end

cond.end:                                         ; preds = %cond.false, %cond.true
  %px3 = getelementptr inbounds nuw %"class.boost::shared_ptr.24", ptr %this1, i32 0, i32 0
  %1 = load ptr, ptr %px3, align 8, !tbaa !16
  ret ptr %1
}

; Function Attrs: mustprogress uwtable
define linkonce_odr noundef ptr @_ZNK5boost10shared_ptrIN8QuantLib30GeneralizedBlackScholesProcessEEptEv(ptr noundef nonnull align 8 dereferenceable(16) %this) #5 comdat align 2 {
entry:
  %this.addr = alloca ptr, align 8
  store ptr %this, ptr %this.addr, align 8, !tbaa !3
  %this1 = load ptr, ptr %this.addr, align 8
  %px = getelementptr inbounds nuw %"class.boost::shared_ptr.14", ptr %this1, i32 0, i32 0
  %0 = load ptr, ptr %px, align 8, !tbaa !9
  %cmp = icmp ne ptr %0, null
  %lnot = xor i1 %cmp, true
  %lnot2 = xor i1 %lnot, true
  %conv = zext i1 %lnot2 to i64
  %expval = call i64 @llvm.expect.i64(i64 %conv, i64 1)
  %tobool = icmp ne i64 %expval, 0
  br i1 %tobool, label %cond.true, label %cond.false

cond.true:                                        ; preds = %entry
  br label %cond.end

cond.false:                                       ; preds = %entry
  call void @_ZN5boost16assertion_failedEPKcS1_S1_l(ptr noundef @.str.8, ptr noundef @__PRETTY_FUNCTION__._ZNK5boost10shared_ptrIN8QuantLib30GeneralizedBlackScholesProcessEEptEv, ptr noundef @.str.9, i64 noundef 784)
  br label %cond.end

cond.end:                                         ; preds = %cond.false, %cond.true
  %px3 = getelementptr inbounds nuw %"class.boost::shared_ptr.14", ptr %this1, i32 0, i32 0
  %1 = load ptr, ptr %px3, align 8, !tbaa !9
  ret ptr %1
}

; Function Attrs: mustprogress uwtable
define { double, double } @_ZNK8QuantLib16BSMRNDCalculator18distributionParamsEdd(ptr noundef nonnull align 8 dereferenceable(24) %this, double noundef %x, double noundef %t) #5 align 2 {
entry:
  %retval = alloca %"struct.std::pair", align 8
  %this.addr = alloca ptr, align 8
  %x.addr = alloca double, align 8
  %t.addr = alloca double, align 8
  %stdDev = alloca double, align 8
  %mean = alloca double, align 8
  store ptr %this, ptr %this.addr, align 8, !tbaa !3
  store double %x, ptr %x.addr, align 8, !tbaa !12
  store double %t, ptr %t.addr, align 8, !tbaa !12
  %this1 = load ptr, ptr %this.addr, align 8
  call void @llvm.lifetime.start.p0(i64 8, ptr %stdDev) #16
  %process_ = getelementptr inbounds nuw %"class.QuantLib::BSMRNDCalculator", ptr %this1, i32 0, i32 1
  %call = call noundef ptr @_ZNK5boost10shared_ptrIN8QuantLib30GeneralizedBlackScholesProcessEEptEv(ptr noundef nonnull align 8 dereferenceable(16) %process_)
  %call2 = call noundef nonnull align 8 dereferenceable(16) ptr @_ZNK8QuantLib30GeneralizedBlackScholesProcess15blackVolatilityEv(ptr noundef nonnull align 8 dereferenceable(250) %call)
  %call3 = call noundef nonnull align 8 dereferenceable(16) ptr @_ZNK8QuantLib6HandleINS_21BlackVolTermStructureEEptEv(ptr noundef nonnull align 8 dereferenceable(16) %call2)
  %call4 = call noundef ptr @_ZNK5boost10shared_ptrIN8QuantLib21BlackVolTermStructureEEptEv(ptr noundef nonnull align 8 dereferenceable(16) %call3)
  %0 = load double, ptr %t.addr, align 8, !tbaa !12
  %1 = load double, ptr %x.addr, align 8, !tbaa !12
  %call5 = call double @exp(double noundef %1) #16, !tbaa !14
  %call6 = call noundef double @_ZNK8QuantLib21BlackVolTermStructure8blackVolEddb(ptr noundef nonnull align 8 dereferenceable(68) %call4, double noundef %0, double noundef %call5, i1 noundef zeroext false)
  %2 = load double, ptr %t.addr, align 8, !tbaa !12
  %call7 = call double @sqrt(double noundef %2) #16, !tbaa !14
  %mul = fmul double %call6, %call7
  store double %mul, ptr %stdDev, align 8, !tbaa !12
  call void @llvm.lifetime.start.p0(i64 8, ptr %mean) #16
  %process_8 = getelementptr inbounds nuw %"class.QuantLib::BSMRNDCalculator", ptr %this1, i32 0, i32 1
  %call9 = call noundef ptr @_ZNK5boost10shared_ptrIN8QuantLib30GeneralizedBlackScholesProcessEEptEv(ptr noundef nonnull align 8 dereferenceable(16) %process_8)
  %vtable = load ptr, ptr %call9, align 8, !tbaa !7
  %vfn = getelementptr inbounds ptr, ptr %vtable, i64 15
  %3 = load ptr, ptr %vfn, align 8
  %call10 = call noundef double %3(ptr noundef nonnull align 8 dereferenceable(250) %call9)
  %call11 = call double @log(double noundef %call10) #16, !tbaa !14
  %4 = load double, ptr %stdDev, align 8, !tbaa !12
  %mul12 = fmul double 5.000000e-01, %4
  %5 = load double, ptr %stdDev, align 8, !tbaa !12
  %neg = fneg double %mul12
  %6 = call double @llvm.fmuladd.f64(double %neg, double %5, double %call11)
  %process_14 = getelementptr inbounds nuw %"class.QuantLib::BSMRNDCalculator", ptr %this1, i32 0, i32 1
  %call15 = call noundef ptr @_ZNK5boost10shared_ptrIN8QuantLib30GeneralizedBlackScholesProcessEEptEv(ptr noundef nonnull align 8 dereferenceable(16) %process_14)
  %call16 = call noundef nonnull align 8 dereferenceable(16) ptr @_ZNK8QuantLib30GeneralizedBlackScholesProcess13dividendYieldEv(ptr noundef nonnull align 8 dereferenceable(250) %call15)
  %call17 = call noundef nonnull align 8 dereferenceable(16) ptr @_ZNK8QuantLib6HandleINS_18YieldTermStructureEEptEv(ptr noundef nonnull align 8 dereferenceable(16) %call16)
  %call18 = call noundef ptr @_ZNK5boost10shared_ptrIN8QuantLib18YieldTermStructureEEptEv(ptr noundef nonnull align 8 dereferenceable(16) %call17)
  %7 = load double, ptr %t.addr, align 8, !tbaa !12
  %call19 = call noundef double @_ZNK8QuantLib18YieldTermStructure8discountEdb(ptr noundef nonnull align 8 dereferenceable(152) %call18, double noundef %7, i1 noundef zeroext false)
  %process_20 = getelementptr inbounds nuw %"class.QuantLib::BSMRNDCalculator", ptr %this1, i32 0, i32 1
  %call21 = call noundef ptr @_ZNK5boost10shared_ptrIN8QuantLib30GeneralizedBlackScholesProcessEEptEv(ptr noundef nonnull align 8 dereferenceable(16) %process_20)
  %call22 = call noundef nonnull align 8 dereferenceable(16) ptr @_ZNK8QuantLib30GeneralizedBlackScholesProcess12riskFreeRateEv(ptr noundef nonnull align 8 dereferenceable(250) %call21)
  %call23 = call noundef nonnull align 8 dereferenceable(16) ptr @_ZNK8QuantLib6HandleINS_18YieldTermStructureEEptEv(ptr noundef nonnull align 8 dereferenceable(16) %call22)
  %call24 = call noundef ptr @_ZNK5boost10shared_ptrIN8QuantLib18YieldTermStructureEEptEv(ptr noundef nonnull align 8 dereferenceable(16) %call23)
  %8 = load double, ptr %t.addr, align 8, !tbaa !12
  %call25 = call noundef double @_ZNK8QuantLib18YieldTermStructure8discountEdb(ptr noundef nonnull align 8 dereferenceable(152) %call24, double noundef %8, i1 noundef zeroext false)
  %div = fdiv double %call19, %call25
  %call26 = call double @log(double noundef %div) #16, !tbaa !14
  %add = fadd double %6, %call26
  store double %add, ptr %mean, align 8, !tbaa !12
  %call27 = call { double, double } @_ZSt9make_pairIRKdS1_ESt4pairINSt25__strip_reference_wrapperINSt5decayIT_E4typeEE6__typeENS3_INS4_IT0_E4typeEE6__typeEEOS5_OSA_(ptr noundef nonnull align 8 dereferenceable(8) %mean, ptr noundef nonnull align 8 dereferenceable(8) %stdDev)
  %9 = getelementptr inbounds nuw { double, double }, ptr %retval, i32 0, i32 0
  %10 = extractvalue { double, double } %call27, 0
  store double %10, ptr %9, align 8
  %11 = getelementptr inbounds nuw { double, double }, ptr %retval, i32 0, i32 1
  %12 = extractvalue { double, double } %call27, 1
  store double %12, ptr %11, align 8
  call void @llvm.lifetime.end.p0(i64 8, ptr %mean) #16
  call void @llvm.lifetime.end.p0(i64 8, ptr %stdDev) #16
  %13 = load { double, double }, ptr %retval, align 8
  ret { double, double } %13
}