; Function Attrs: mustprogress uwtable
define { double, double } @_ZNK8QuantLib16BSMRNDCalculator18distributionParamsEdd(ptr nocapture noundef nonnull readonly align 8 dereferenceable(24) %this, double noundef %x, double noundef %t) local_unnamed_addr #3 align 2 {
entry:
  %process_ = getelementptr inbounds nuw i8, ptr %this, i64 8
  %0 = load ptr, ptr %process_, align 8, !tbaa !18
  %cmp.not.i = icmp eq ptr %0, null
  br i1 %cmp.not.i, label %cond.false.i, label %_ZNK5boost10shared_ptrIN8QuantLib30GeneralizedBlackScholesProcessEEptEv.exit, !prof !20

cond.false.i:                                     ; preds = %entry
  tail call void @_ZN5boost16assertion_failedEPKcS1_S1_l(ptr noundef nonnull @.str.8, ptr noundef nonnull @__PRETTY_FUNCTION__._ZNK5boost10shared_ptrIN8QuantLib30GeneralizedBlackScholesProcessEEptEv, ptr noundef nonnull @.str.9, i64 noundef 784)
  %.pre.i = load ptr, ptr %process_, align 8, !tbaa !18
  br label %_ZNK5boost10shared_ptrIN8QuantLib30GeneralizedBlackScholesProcessEEptEv.exit

_ZNK5boost10shared_ptrIN8QuantLib30GeneralizedBlackScholesProcessEEptEv.exit: ; preds = %entry, %cond.false.i
  %1 = phi ptr [ %0, %entry ], [ %.pre.i, %cond.false.i ]
  %call2 = tail call noundef nonnull align 8 dereferenceable(16) ptr @_ZNK8QuantLib30GeneralizedBlackScholesProcess15blackVolatilityEv(ptr noundef nonnull align 8 dereferenceable(250) %1)
  %call3 = tail call noundef nonnull align 8 dereferenceable(16) ptr @_ZNK8QuantLib6HandleINS_21BlackVolTermStructureEEptEv(ptr noundef nonnull align 8 dereferenceable(16) %call2)
  %2 = load ptr, ptr %call3, align 8, !tbaa !21
  %cmp.not.i4 = icmp eq ptr %2, null
  br i1 %cmp.not.i4, label %cond.false.i5, label %_ZNK5boost10shared_ptrIN8QuantLib21BlackVolTermStructureEEptEv.exit, !prof !20

cond.false.i5:                                    ; preds = %_ZNK5boost10shared_ptrIN8QuantLib30GeneralizedBlackScholesProcessEEptEv.exit
  tail call void @_ZN5boost16assertion_failedEPKcS1_S1_l(ptr noundef nonnull @.str.8, ptr noundef nonnull @__PRETTY_FUNCTION__._ZNK5boost10shared_ptrIN8QuantLib21BlackVolTermStructureEEptEv, ptr noundef nonnull @.str.9, i64 noundef 784)
  %.pre.i6 = load ptr, ptr %call3, align 8, !tbaa !21
  br label %_ZNK5boost10shared_ptrIN8QuantLib21BlackVolTermStructureEEptEv.exit

_ZNK5boost10shared_ptrIN8QuantLib21BlackVolTermStructureEEptEv.exit: ; preds = %_ZNK5boost10shared_ptrIN8QuantLib30GeneralizedBlackScholesProcessEEptEv.exit, %cond.false.i5
  %3 = phi ptr [ %2, %_ZNK5boost10shared_ptrIN8QuantLib30GeneralizedBlackScholesProcessEEptEv.exit ], [ %.pre.i6, %cond.false.i5 ]
  %call5 = tail call double @exp(double noundef %x) #19, !tbaa !23
  tail call void @_ZNK8QuantLib13TermStructure10checkRangeEdb(ptr noundef nonnull align 8 dereferenceable(64) %3, double noundef %t, i1 noundef zeroext false)
  tail call void @_ZNK8QuantLib23VolatilityTermStructure11checkStrikeEdb(ptr noundef nonnull align 8 dereferenceable(68) %3, double noundef %call5, i1 noundef zeroext false)
  %vtable.i = load ptr, ptr %3, align 8, !tbaa !14
  %vfn.i = getelementptr inbounds i8, ptr %vtable.i, i64 112
  %4 = load ptr, ptr %vfn.i, align 8
  %call.i = tail call noundef double %4(ptr noundef nonnull align 8 dereferenceable(68) %3, double noundef %t, double noundef %call5)
  %call7 = tail call double @sqrt(double noundef %t) #19, !tbaa !23
  %5 = load ptr, ptr %process_, align 8, !tbaa !18
  %cmp.not.i7 = icmp eq ptr %5, null
  br i1 %cmp.not.i7, label %cond.false.i8, label %_ZNK5boost10shared_ptrIN8QuantLib30GeneralizedBlackScholesProcessEEptEv.exit10, !prof !20

cond.false.i8:                                    ; preds = %_ZNK5boost10shared_ptrIN8QuantLib21BlackVolTermStructureEEptEv.exit
  tail call void @_ZN5boost16assertion_failedEPKcS1_S1_l(ptr noundef nonnull @.str.8, ptr noundef nonnull @__PRETTY_FUNCTION__._ZNK5boost10shared_ptrIN8QuantLib30GeneralizedBlackScholesProcessEEptEv, ptr noundef nonnull @.str.9, i64 noundef 784)
  %.pre.i9 = load ptr, ptr %process_, align 8, !tbaa !18
  br label %_ZNK5boost10shared_ptrIN8QuantLib30GeneralizedBlackScholesProcessEEptEv.exit10

_ZNK5boost10shared_ptrIN8QuantLib30GeneralizedBlackScholesProcessEEptEv.exit10: ; preds = %_ZNK5boost10shared_ptrIN8QuantLib21BlackVolTermStructureEEptEv.exit, %cond.false.i8
  %6 = phi ptr [ %5, %_ZNK5boost10shared_ptrIN8QuantLib21BlackVolTermStructureEEptEv.exit ], [ %.pre.i9, %cond.false.i8 ]
  %vtable = load ptr, ptr %6, align 8, !tbaa !14
  %vfn = getelementptr inbounds i8, ptr %vtable, i64 120
  %7 = load ptr, ptr %vfn, align 8
  %call10 = tail call noundef double %7(ptr noundef nonnull align 8 dereferenceable(250) %6)
  %call11 = tail call double @log(double noundef %call10) #19, !tbaa !23
  %8 = load ptr, ptr %process_, align 8, !tbaa !18
  %cmp.not.i11 = icmp eq ptr %8, null
  br i1 %cmp.not.i11, label %cond.false.i12, label %_ZNK5boost10shared_ptrIN8QuantLib30GeneralizedBlackScholesProcessEEptEv.exit14, !prof !20

cond.false.i12:                                   ; preds = %_ZNK5boost10shared_ptrIN8QuantLib30GeneralizedBlackScholesProcessEEptEv.exit10
  tail call void @_ZN5boost16assertion_failedEPKcS1_S1_l(ptr noundef nonnull @.str.8, ptr noundef nonnull @__PRETTY_FUNCTION__._ZNK5boost10shared_ptrIN8QuantLib30GeneralizedBlackScholesProcessEEptEv, ptr noundef nonnull @.str.9, i64 noundef 784)
  %.pre.i13 = load ptr, ptr %process_, align 8, !tbaa !18
  br label %_ZNK5boost10shared_ptrIN8QuantLib30GeneralizedBlackScholesProcessEEptEv.exit14

_ZNK5boost10shared_ptrIN8QuantLib30GeneralizedBlackScholesProcessEEptEv.exit14: ; preds = %_ZNK5boost10shared_ptrIN8QuantLib30GeneralizedBlackScholesProcessEEptEv.exit10, %cond.false.i12
  %9 = phi ptr [ %8, %_ZNK5boost10shared_ptrIN8QuantLib30GeneralizedBlackScholesProcessEEptEv.exit10 ], [ %.pre.i13, %cond.false.i12 ]
  %call16 = tail call noundef nonnull align 8 dereferenceable(16) ptr @_ZNK8QuantLib30GeneralizedBlackScholesProcess13dividendYieldEv(ptr noundef nonnull align 8 dereferenceable(250) %9)
  %call17 = tail call noundef nonnull align 8 dereferenceable(16) ptr @_ZNK8QuantLib6HandleINS_18YieldTermStructureEEptEv(ptr noundef nonnull align 8 dereferenceable(16) %call16)
  %10 = load ptr, ptr %call17, align 8, !tbaa !25
  %cmp.not.i15 = icmp eq ptr %10, null
  br i1 %cmp.not.i15, label %cond.false.i16, label %_ZNK5boost10shared_ptrIN8QuantLib18YieldTermStructureEEptEv.exit, !prof !20

cond.false.i16:                                   ; preds = %_ZNK5boost10shared_ptrIN8QuantLib30GeneralizedBlackScholesProcessEEptEv.exit14
  tail call void @_ZN5boost16assertion_failedEPKcS1_S1_l(ptr noundef nonnull @.str.8, ptr noundef nonnull @__PRETTY_FUNCTION__._ZNK5boost10shared_ptrIN8QuantLib18YieldTermStructureEEptEv, ptr noundef nonnull @.str.9, i64 noundef 784)
  %.pre.i17 = load ptr, ptr %call17, align 8, !tbaa !25
  br label %_ZNK5boost10shared_ptrIN8QuantLib18YieldTermStructureEEptEv.exit

_ZNK5boost10shared_ptrIN8QuantLib18YieldTermStructureEEptEv.exit: ; preds = %_ZNK5boost10shared_ptrIN8QuantLib30GeneralizedBlackScholesProcessEEptEv.exit14, %cond.false.i16
  %11 = phi ptr [ %10, %_ZNK5boost10shared_ptrIN8QuantLib30GeneralizedBlackScholesProcessEEptEv.exit14 ], [ %.pre.i17, %cond.false.i16 ]
  %call19 = tail call noundef double @_ZNK8QuantLib18YieldTermStructure8discountEdb(ptr noundef nonnull align 8 dereferenceable(152) %11, double noundef %t, i1 noundef zeroext false)
  %12 = load ptr, ptr %process_, align 8, !tbaa !18
  %cmp.not.i18 = icmp eq ptr %12, null
  br i1 %cmp.not.i18, label %cond.false.i19, label %_ZNK5boost10shared_ptrIN8QuantLib30GeneralizedBlackScholesProcessEEptEv.exit21, !prof !20

cond.false.i19:                                   ; preds = %_ZNK5boost10shared_ptrIN8QuantLib18YieldTermStructureEEptEv.exit
  tail call void @_ZN5boost16assertion_failedEPKcS1_S1_l(ptr noundef nonnull @.str.8, ptr noundef nonnull @__PRETTY_FUNCTION__._ZNK5boost10shared_ptrIN8QuantLib30GeneralizedBlackScholesProcessEEptEv, ptr noundef nonnull @.str.9, i64 noundef 784)
  %.pre.i20 = load ptr, ptr %process_, align 8, !tbaa !18
  br label %_ZNK5boost10shared_ptrIN8QuantLib30GeneralizedBlackScholesProcessEEptEv.exit21

_ZNK5boost10shared_ptrIN8QuantLib30GeneralizedBlackScholesProcessEEptEv.exit21: ; preds = %_ZNK5boost10shared_ptrIN8QuantLib18YieldTermStructureEEptEv.exit, %cond.false.i19
  %13 = phi ptr [ %12, %_ZNK5boost10shared_ptrIN8QuantLib18YieldTermStructureEEptEv.exit ], [ %.pre.i20, %cond.false.i19 ]
  %call22 = tail call noundef nonnull align 8 dereferenceable(16) ptr @_ZNK8QuantLib30GeneralizedBlackScholesProcess12riskFreeRateEv(ptr noundef nonnull align 8 dereferenceable(250) %13)
  %call23 = tail call noundef nonnull align 8 dereferenceable(16) ptr @_ZNK8QuantLib6HandleINS_18YieldTermStructureEEptEv(ptr noundef nonnull align 8 dereferenceable(16) %call22)
  %14 = load ptr, ptr %call23, align 8, !tbaa !25
  %cmp.not.i22 = icmp eq ptr %14, null
  br i1 %cmp.not.i22, label %cond.false.i23, label %_ZNK5boost10shared_ptrIN8QuantLib18YieldTermStructureEEptEv.exit25, !prof !20

cond.false.i23:                                   ; preds = %_ZNK5boost10shared_ptrIN8QuantLib30GeneralizedBlackScholesProcessEEptEv.exit21
  tail call void @_ZN5boost16assertion_failedEPKcS1_S1_l(ptr noundef nonnull @.str.8, ptr noundef nonnull @__PRETTY_FUNCTION__._ZNK5boost10shared_ptrIN8QuantLib18YieldTermStructureEEptEv, ptr noundef nonnull @.str.9, i64 noundef 784)
  %.pre.i24 = load ptr, ptr %call23, align 8, !tbaa !25
  br label %_ZNK5boost10shared_ptrIN8QuantLib18YieldTermStructureEEptEv.exit25

_ZNK5boost10shared_ptrIN8QuantLib18YieldTermStructureEEptEv.exit25: ; preds = %_ZNK5boost10shared_ptrIN8QuantLib30GeneralizedBlackScholesProcessEEptEv.exit21, %cond.false.i23
  %15 = phi ptr [ %14, %_ZNK5boost10shared_ptrIN8QuantLib30GeneralizedBlackScholesProcessEEptEv.exit21 ], [ %.pre.i24, %cond.false.i23 ]
  %mul = fmul double %call.i, %call7
  %neg = fmul double %mul, -5.000000e-01
  %16 = tail call double @llvm.fmuladd.f64(double %neg, double %mul, double %call11)
  %call25 = tail call noundef double @_ZNK8QuantLib18YieldTermStructure8discountEdb(ptr noundef nonnull align 8 dereferenceable(152) %15, double noundef %t, i1 noundef zeroext false)
  %div = fdiv double %call19, %call25
  %call26 = tail call double @log(double noundef %div) #19, !tbaa !23
  %add = fadd double %16, %call26
  %.fca.0.insert.i = insertvalue { double, double } poison, double %add, 0
  %.fca.1.insert.i = insertvalue { double, double } %.fca.0.insert.i, double %mul, 1
  ret { double, double } %.fca.1.insert.i
}